; Function Attrs: mustprogress uwtable
define hidden noundef nonnull ptr @_ZN6google8protobuf8internal14ArenaStringPtr21SetAndReturnNewStringB5cxx11Ev(ptr noundef nonnull writeonly align 8 captures(none) dereferenceable(8) initializes((0, 8)) %0) local_unnamed_addr #3 align 2 personality ptr @__gxx_personality_v0 {
  %2 = tail call noalias noundef nonnull dereferenceable(32) ptr @_Znwm(i64 noundef 32) #15
  %3 = getelementptr inbounds nuw i8, ptr %2, i64 16
  store ptr %3, ptr %2, align 8, !tbaa !10
  %4 = getelementptr inbounds nuw i8, ptr %2, i64 8
  store i64 0, ptr %4, align 8, !tbaa !15
  store i8 0, ptr %3, align 1, !tbaa !14
  store ptr %2, ptr %0, align 8, !tbaa !16
  ret ptr %2
}